target datalayout = "e-m:e-p270:32:32-p271:32:32-p272:64:64-i64:64-i128:128-f80:128-n8:16:32:64-S128"
target triple = "x86_64-pc-linux-gnu"

%"struct.Yosys::RTLIL::Const" = type { i32, %"class.std::vector.166" }
%"class.std::vector.166" = type { %"struct.std::_Vector_base.167" }
%"struct.std::_Vector_base.167" = type { %"struct.std::_Vector_base<Yosys::RTLIL::State, std::allocator<Yosys::RTLIL::State>>::_Vector_impl" }
%"struct.std::_Vector_base<Yosys::RTLIL::State, std::allocator<Yosys::RTLIL::State>>::_Vector_impl" = type { %"struct.std::_Vector_base<Yosys::RTLIL::State, std::allocator<Yosys::RTLIL::State>>::_Vector_impl_data" }
%"struct.std::_Vector_base<Yosys::RTLIL::State, std::allocator<Yosys::RTLIL::State>>::_Vector_impl_data" = type { ptr, ptr, ptr }
%"class.__gnu_cxx::__normal_iterator.642" = type { ptr }
%"struct.(anonymous namespace)::SimInstance::print_state_t" = type { i8, %"struct.Yosys::RTLIL::Const", %"struct.Yosys::RTLIL::Const", %"struct.Yosys::RTLIL::Const", ptr, %"struct.Yosys::Fmt" }
%"struct.Yosys::Fmt" = type { %"class.std::vector.637" }
%"class.std::vector.637" = type { %"struct.std::_Vector_base.638" }
%"struct.std::_Vector_base.638" = type { %"struct.std::_Vector_base<Yosys::FmtPart, std::allocator<Yosys::FmtPart>>::_Vector_impl" }
%"struct.std::_Vector_base<Yosys::FmtPart, std::allocator<Yosys::FmtPart>>::_Vector_impl" = type { %"struct.std::_Vector_base<Yosys::FmtPart, std::allocator<Yosys::FmtPart>>::_Vector_impl_data" }
%"struct.std::_Vector_base<Yosys::FmtPart, std::allocator<Yosys::FmtPart>>::_Vector_impl_data" = type { ptr, ptr, ptr }

; Function Attrs: mustprogress nounwind uwtable
define linkonce_odr noundef nonnull align 8 dereferenceable(24) ptr @_ZNSt6vectorIN5Yosys7FmtPartESaIS1_EEaSEOS3_(ptr noundef nonnull align 8 dereferenceable(24) %0, ptr noundef nonnull align 8 dereferenceable(24) %1) #5 comdat align 2 {
  %3 = alloca ptr, align 8
  %4 = alloca ptr, align 8
  %5 = alloca i8, align 1
  store ptr %0, ptr %3, align 8
  store ptr %1, ptr %4, align 8
  %6 = load ptr, ptr %3, align 8
  store i8 1, ptr %5, align 1
  %7 = load ptr, ptr %4, align 8
  call void @_ZNSt6vectorIN5Yosys7FmtPartESaIS1_EE14_M_move_assignEOS3_St17integral_constantIbLb1EE(ptr noundef nonnull align 8 dereferenceable(24) %6, ptr noundef nonnull align 8 dereferenceable(24) %7) #3
  ret ptr %6
}

; Function Attrs: mustprogress nounwind uwtable
define linkonce_odr noundef nonnull align 8 dereferenceable(24) ptr @_ZN5Yosys3FmtaSEOS0_(ptr noundef nonnull align 8 dereferenceable(24) %0, ptr noundef nonnull align 8 dereferenceable(24) %1) #5 comdat align 2 {
  %3 = alloca ptr, align 8
  %4 = alloca ptr, align 8
  store ptr %0, ptr %3, align 8
  store ptr %1, ptr %4, align 8
  %5 = load ptr, ptr %3, align 8
  %6 = getelementptr inbounds %"struct.Yosys::Fmt", ptr %5, i32 0, i32 0
  %7 = load ptr, ptr %4, align 8
  %8 = getelementptr inbounds %"struct.Yosys::Fmt", ptr %7, i32 0, i32 0
  %9 = call noundef nonnull align 8 dereferenceable(24) ptr @_ZNSt6vectorIN5Yosys7FmtPartESaIS1_EEaSEOS3_(ptr noundef nonnull align 8 dereferenceable(24) %6, ptr noundef nonnull align 8 dereferenceable(24) %8) #3
  ret ptr %5
}

; Function Attrs: mustprogress uwtable
define linkonce_odr noundef nonnull align 8 dereferenceable(32) ptr @_ZN5Yosys5RTLIL5ConstaSERKS1_(ptr noundef nonnull align 8 dereferenceable(32) %0, ptr noundef nonnull align 8 dereferenceable(32) %1) #4 comdat align 2 {
  %3 = alloca ptr, align 8
  %4 = alloca ptr, align 8
  store ptr %0, ptr %3, align 8
  store ptr %1, ptr %4, align 8
  %5 = load ptr, ptr %3, align 8
  %6 = load ptr, ptr %4, align 8
  %7 = getelementptr inbounds %"struct.Yosys::RTLIL::Const", ptr %6, i32 0, i32 0
  %8 = load i32, ptr %7, align 8
  %9 = getelementptr inbounds %"struct.Yosys::RTLIL::Const", ptr %5, i32 0, i32 0
  store i32 %8, ptr %9, align 8
  %10 = getelementptr inbounds %"struct.Yosys::RTLIL::Const", ptr %5, i32 0, i32 1
  %11 = load ptr, ptr %4, align 8
  %12 = getelementptr inbounds %"struct.Yosys::RTLIL::Const", ptr %11, i32 0, i32 1
  %13 = call noundef nonnull align 8 dereferenceable(24) ptr @_ZNSt6vectorIN5Yosys5RTLIL5StateESaIS2_EEaSERKS4_(ptr noundef nonnull align 8 dereferenceable(24) %10, ptr noundef nonnull align 8 dereferenceable(24) %12)
  ret ptr %5
}

; Function Attrs: mustprogress uwtable
define internal noundef nonnull align 8 dereferenceable(136) ptr @_ZN12_GLOBAL__N_111SimInstance13print_state_taSEOS1_(ptr noundef nonnull align 8 dereferenceable(136) %0, ptr noundef nonnull align 8 dereferenceable(136) %1) #4 align 2 {
  %3 = alloca ptr, align 8
  %4 = alloca ptr, align 8
  store ptr %0, ptr %3, align 8
  store ptr %1, ptr %4, align 8
  %5 = load ptr, ptr %3, align 8
  %6 = load ptr, ptr %4, align 8
  %7 = getelementptr inbounds %"struct.(anonymous namespace)::SimInstance::print_state_t", ptr %6, i32 0, i32 0
  %8 = load i8, ptr %7, align 8
  %9 = trunc i8 %8 to i1
  %10 = getelementptr inbounds %"struct.(anonymous namespace)::SimInstance::print_state_t", ptr %5, i32 0, i32 0
  %11 = zext i1 %9 to i8
  store i8 %11, ptr %10, align 8
  %12 = getelementptr inbounds %"struct.(anonymous namespace)::SimInstance::print_state_t", ptr %5, i32 0, i32 1
  %13 = load ptr, ptr %4, align 8
  %14 = getelementptr inbounds %"struct.(anonymous namespace)::SimInstance::print_state_t", ptr %13, i32 0, i32 1
  %15 = call noundef nonnull align 8 dereferenceable(32) ptr @_ZN5Yosys5RTLIL5ConstaSERKS1_(ptr noundef nonnull align 8 dereferenceable(32) %12, ptr noundef nonnull align 8 dereferenceable(32) %14)
  %16 = getelementptr inbounds %"struct.(anonymous namespace)::SimInstance::print_state_t", ptr %5, i32 0, i32 2
  %17 = load ptr, ptr %4, align 8
  %18 = getelementptr inbounds %"struct.(anonymous namespace)::SimInstance::print_state_t", ptr %17, i32 0, i32 2
  %19 = call noundef nonnull align 8 dereferenceable(32) ptr @_ZN5Yosys5RTLIL5ConstaSERKS1_(ptr noundef nonnull align 8 dereferenceable(32) %16, ptr noundef nonnull align 8 dereferenceable(32) %18)
  %20 = getelementptr inbounds %"struct.(anonymous namespace)::SimInstance::print_state_t", ptr %5, i32 0, i32 3
  %21 = load ptr, ptr %4, align 8
  %22 = getelementptr inbounds %"struct.(anonymous namespace)::SimInstance::print_state_t", ptr %21, i32 0, i32 3
  %23 = call noundef nonnull align 8 dereferenceable(32) ptr @_ZN5Yosys5RTLIL5ConstaSERKS1_(ptr noundef nonnull align 8 dereferenceable(32) %20, ptr noundef nonnull align 8 dereferenceable(32) %22)
  %24 = load ptr, ptr %4, align 8
  %25 = getelementptr inbounds %"struct.(anonymous namespace)::SimInstance::print_state_t", ptr %24, i32 0, i32 4
  %26 = load ptr, ptr %25, align 8
  %27 = getelementptr inbounds %"struct.(anonymous namespace)::SimInstance::print_state_t", ptr %5, i32 0, i32 4
  store ptr %26, ptr %27, align 8
  %28 = getelementptr inbounds %"struct.(anonymous namespace)::SimInstance::print_state_t", ptr %5, i32 0, i32 5
  %29 = load ptr, ptr %4, align 8
  %30 = getelementptr inbounds %"struct.(anonymous namespace)::SimInstance::print_state_t", ptr %29, i32 0, i32 5
  %31 = call noundef nonnull align 8 dereferenceable(24) ptr @_ZN5Yosys3FmtaSEOS0_(ptr noundef nonnull align 8 dereferenceable(24) %28, ptr noundef nonnull align 8 dereferenceable(24) %30) #3
  ret ptr %5
}

; Function Attrs: mustprogress uwtable
define internal void @_ZSt4swapIN12_GLOBAL__N_111SimInstance13print_state_tEENSt9enable_ifIXsr6__and_ISt6__not_ISt15__is_tuple_likeIT_EESt21is_move_constructibleIS6_ESt18is_move_assignableIS6_EEE5valueEvE4typeERS6_SF_(ptr noundef nonnull align 8 dereferenceable(136) %0, ptr noundef nonnull align 8 dereferenceable(136) %1) #4 personality ptr @__gxx_personality_v0 {
  %3 = alloca ptr, align 8
  %4 = alloca ptr, align 8
  %5 = alloca %"struct.(anonymous namespace)::SimInstance::print_state_t", align 8
  %6 = alloca ptr, align 8
  %7 = alloca i32, align 4
  store ptr %0, ptr %3, align 8
  store ptr %1, ptr %4, align 8
  %8 = load ptr, ptr %3, align 8
  call void @_ZN12_GLOBAL__N_111SimInstance13print_state_tC2EOS1_(ptr noundef nonnull align 8 dereferenceable(136) %5, ptr noundef nonnull align 8 dereferenceable(136) %8)
  %9 = load ptr, ptr %4, align 8
  %10 = load ptr, ptr %3, align 8
  %11 = invoke noundef nonnull align 8 dereferenceable(136) ptr @_ZN12_GLOBAL__N_111SimInstance13print_state_taSEOS1_(ptr noundef nonnull align 8 dereferenceable(136) %10, ptr noundef nonnull align 8 dereferenceable(136) %9)
          to label %12 unwind label %16

12:                                               ; preds = %2
  %13 = load ptr, ptr %4, align 8
  %14 = invoke noundef nonnull align 8 dereferenceable(136) ptr @_ZN12_GLOBAL__N_111SimInstance13print_state_taSEOS1_(ptr noundef nonnull align 8 dereferenceable(136) %13, ptr noundef nonnull align 8 dereferenceable(136) %5)
          to label %15 unwind label %16

15:                                               ; preds = %12
  call void @_ZN12_GLOBAL__N_111SimInstance13print_state_tD2Ev(ptr noundef nonnull align 8 dereferenceable(136) %5) #3
  ret void

16:                                               ; preds = %12, %2
  %17 = landingpad { ptr, i32 }
          cleanup
  %18 = extractvalue { ptr, i32 } %17, 0
  store ptr %18, ptr %6, align 8
  %19 = extractvalue { ptr, i32 } %17, 1
  store i32 %19, ptr %7, align 4
  call void @_ZN12_GLOBAL__N_111SimInstance13print_state_tD2Ev(ptr noundef nonnull align 8 dereferenceable(136) %5) #3
  br label %20

20:                                               ; preds = %16
  %21 = load ptr, ptr %6, align 8
  %22 = load i32, ptr %7, align 4
  %23 = insertvalue { ptr, i32 } poison, ptr %21, 0
  %24 = insertvalue { ptr, i32 } %23, i32 %22, 1
  resume { ptr, i32 } %24
}

; Function Attrs: mustprogress nounwind uwtable
define internal noundef nonnull align 8 dereferenceable(136) ptr @_ZNK9__gnu_cxx17__normal_iteratorIPN12_GLOBAL__N_111SimInstance13print_state_tESt6vectorIS3_SaIS3_EEEdeEv(ptr noundef nonnull align 8 dereferenceable(8) %0) #5 align 2 {
  %2 = alloca ptr, align 8
  store ptr %0, ptr %2, align 8
  %3 = load ptr, ptr %2, align 8
  %4 = getelementptr inbounds %"class.__gnu_cxx::__normal_iterator.642", ptr %3, i32 0, i32 0
  %5 = load ptr, ptr %4, align 8
  ret ptr %5
}

; Function Attrs: mustprogress uwtable
define internal void @_ZSt9iter_swapIN9__gnu_cxx17__normal_iteratorIPN12_GLOBAL__N_111SimInstance13print_state_tESt6vectorIS4_SaIS4_EEEES9_EvT_T0_(ptr %0, ptr %1) #4 {
  %3 = alloca %"class.__gnu_cxx::__normal_iterator.642", align 8
  %4 = alloca %"class.__gnu_cxx::__normal_iterator.642", align 8
  %5 = getelementptr inbounds %"class.__gnu_cxx::__normal_iterator.642", ptr %3, i32 0, i32 0
  store ptr %0, ptr %5, align 8
  %6 = getelementptr inbounds %"class.__gnu_cxx::__normal_iterator.642", ptr %4, i32 0, i32 0
  store ptr %1, ptr %6, align 8
  %7 = call noundef nonnull align 8 dereferenceable(136) ptr @_ZNK9__gnu_cxx17__normal_iteratorIPN12_GLOBAL__N_111SimInstance13print_state_tESt6vectorIS3_SaIS3_EEEdeEv(ptr noundef nonnull align 8 dereferenceable(8) %3) #3
  %8 = call noundef nonnull align 8 dereferenceable(136) ptr @_ZNK9__gnu_cxx17__normal_iteratorIPN12_GLOBAL__N_111SimInstance13print_state_tESt6vectorIS3_SaIS3_EEEdeEv(ptr noundef nonnull align 8 dereferenceable(8) %4) #3
  call void @_ZSt4swapIN12_GLOBAL__N_111SimInstance13print_state_tEENSt9enable_ifIXsr6__and_ISt6__not_ISt15__is_tuple_likeIT_EESt21is_move_constructibleIS6_ESt18is_move_assignableIS6_EEE5valueEvE4typeERS6_SF_(ptr noundef nonnull align 8 dereferenceable(136) %7, ptr noundef nonnull align 8 dereferenceable(136) %8)
  ret void
}