; Function Attrs: mustprogress uwtable
define internal fastcc void @_ZSt9iter_swapIN9__gnu_cxx17__normal_iteratorIPN12_GLOBAL__N_111SimInstance13print_state_tESt6vectorIS4_SaIS4_EEEES9_EvT_T0_(ptr nonnull %0, ptr %1) unnamed_addr #4 personality ptr @__gxx_personality_v0 {
  %3 = alloca %"struct.(anonymous namespace)::SimInstance::print_state_t", align 8
  call void @llvm.lifetime.start.p0(i64 136, ptr nonnull %3)
  call fastcc void @_ZN12_GLOBAL__N_111SimInstance13print_state_tC2EOS1_(ptr noundef nonnull align 8 dereferenceable(136) %3, ptr noundef nonnull align 8 dereferenceable(136) %0)
  %4 = load i8, ptr %1, align 8
  %5 = and i8 %4, 1
  store i8 %5, ptr %0, align 8
  %6 = getelementptr inbounds i8, ptr %0, i64 8
  %7 = getelementptr inbounds i8, ptr %1, i64 8
  %8 = load i32, ptr %7, align 8
  store i32 %8, ptr %6, align 8
  %9 = getelementptr inbounds i8, ptr %0, i64 16
  %10 = getelementptr inbounds i8, ptr %1, i64 16
  %11 = invoke noundef nonnull align 8 dereferenceable(24) ptr @_ZNSt6vectorIN5Yosys5RTLIL5StateESaIS2_EEaSERKS4_(ptr noundef nonnull align 8 dereferenceable(24) %9, ptr noundef nonnull align 8 dereferenceable(24) %10)
          to label %.noexc.i unwind label %74

.noexc.i:                                         ; preds = %2
  %12 = getelementptr inbounds i8, ptr %0, i64 40
  %13 = getelementptr inbounds i8, ptr %1, i64 40
  %14 = load i32, ptr %13, align 8
  store i32 %14, ptr %12, align 8
  %15 = getelementptr inbounds i8, ptr %0, i64 48
  %16 = getelementptr inbounds i8, ptr %1, i64 48
  %17 = invoke noundef nonnull align 8 dereferenceable(24) ptr @_ZNSt6vectorIN5Yosys5RTLIL5StateESaIS2_EEaSERKS4_(ptr noundef nonnull align 8 dereferenceable(24) %15, ptr noundef nonnull align 8 dereferenceable(24) %16)
          to label %.noexc5.i unwind label %74

.noexc5.i:                                        ; preds = %.noexc.i
  %18 = getelementptr inbounds i8, ptr %0, i64 72
  %19 = getelementptr inbounds i8, ptr %1, i64 72
  %20 = load i32, ptr %19, align 8
  store i32 %20, ptr %18, align 8
  %21 = getelementptr inbounds i8, ptr %0, i64 80
  %22 = getelementptr inbounds i8, ptr %1, i64 80
  %23 = invoke noundef nonnull align 8 dereferenceable(24) ptr @_ZNSt6vectorIN5Yosys5RTLIL5StateESaIS2_EEaSERKS4_(ptr noundef nonnull align 8 dereferenceable(24) %21, ptr noundef nonnull align 8 dereferenceable(24) %22)
          to label %24 unwind label %74

24:                                               ; preds = %.noexc5.i
  %25 = getelementptr inbounds i8, ptr %1, i64 104
  %26 = load ptr, ptr %25, align 8
  %27 = getelementptr inbounds i8, ptr %0, i64 104
  store ptr %26, ptr %27, align 8
  %28 = getelementptr inbounds i8, ptr %0, i64 112
  %29 = getelementptr inbounds i8, ptr %1, i64 112
  tail call void @_ZNSt6vectorIN5Yosys7FmtPartESaIS1_EE14_M_move_assignEOS3_St17integral_constantIbLb1EE(ptr noundef nonnull align 8 dereferenceable(24) %28, ptr noundef nonnull align 8 dereferenceable(24) %29) #31
  %30 = load i8, ptr %3, align 8
  %31 = and i8 %30, 1
  store i8 %31, ptr %1, align 8
  %32 = getelementptr inbounds i8, ptr %3, i64 8
  %33 = load i32, ptr %32, align 8
  store i32 %33, ptr %7, align 8
  %34 = getelementptr inbounds i8, ptr %3, i64 16
  %35 = invoke noundef nonnull align 8 dereferenceable(24) ptr @_ZNSt6vectorIN5Yosys5RTLIL5StateESaIS2_EEaSERKS4_(ptr noundef nonnull align 8 dereferenceable(24) %10, ptr noundef nonnull align 8 dereferenceable(24) %34)
          to label %.noexc7.i unwind label %74

.noexc7.i:                                        ; preds = %24
  %36 = getelementptr inbounds i8, ptr %3, i64 40
  %37 = load i32, ptr %36, align 8
  store i32 %37, ptr %13, align 8
  %38 = getelementptr inbounds i8, ptr %3, i64 48
  %39 = invoke noundef nonnull align 8 dereferenceable(24) ptr @_ZNSt6vectorIN5Yosys5RTLIL5StateESaIS2_EEaSERKS4_(ptr noundef nonnull align 8 dereferenceable(24) %16, ptr noundef nonnull align 8 dereferenceable(24) %38)
          to label %.noexc8.i unwind label %74

.noexc8.i:                                        ; preds = %.noexc7.i
  %40 = getelementptr inbounds i8, ptr %3, i64 72
  %41 = load i32, ptr %40, align 8
  store i32 %41, ptr %19, align 8
  %42 = getelementptr inbounds i8, ptr %3, i64 80
  %43 = invoke noundef nonnull align 8 dereferenceable(24) ptr @_ZNSt6vectorIN5Yosys5RTLIL5StateESaIS2_EEaSERKS4_(ptr noundef nonnull align 8 dereferenceable(24) %22, ptr noundef nonnull align 8 dereferenceable(24) %42)
          to label %44 unwind label %74

44:                                               ; preds = %.noexc8.i
  %45 = getelementptr inbounds i8, ptr %3, i64 104
  %46 = load ptr, ptr %45, align 8
  store ptr %46, ptr %25, align 8
  %47 = getelementptr inbounds i8, ptr %3, i64 112
  call void @_ZNSt6vectorIN5Yosys7FmtPartESaIS1_EE14_M_move_assignEOS3_St17integral_constantIbLb1EE(ptr noundef nonnull align 8 dereferenceable(24) %29, ptr noundef nonnull align 8 dereferenceable(24) %47) #31
  %48 = load ptr, ptr %47, align 8
  %49 = getelementptr inbounds i8, ptr %3, i64 120
  %50 = load ptr, ptr %49, align 8
  %.not4.i.i.i.i.i = icmp eq ptr %48, %50
  br i1 %.not4.i.i.i.i.i, label %_ZSt8_DestroyIPN5Yosys7FmtPartES1_EvT_S3_RSaIT0_E.exit.i.i, label %.lr.ph.i.i.i.i.i

.lr.ph.i.i.i.i.i:                                 ; preds = %44, %_ZSt8_DestroyIN5Yosys7FmtPartEEvPT_.exit.i.i.i.i.i
  %.05.i.i.i.i.i = phi ptr [ %65, %_ZSt8_DestroyIN5Yosys7FmtPartEEvPT_.exit.i.i.i.i.i ], [ %48, %44 ]
  %51 = getelementptr inbounds i8, ptr %.05.i.i.i.i.i, i64 80
  %52 = load ptr, ptr %51, align 8
  %.not.i.i.i.i.i.i.i.i.i.i.i = icmp eq ptr %52, null
  br i1 %.not.i.i.i.i.i.i.i.i.i.i.i, label %_ZNSt6vectorIN5Yosys5RTLIL6SigBitESaIS2_EED2Ev.exit.i.i.i.i.i.i.i.i, label %53

53:                                               ; preds = %.lr.ph.i.i.i.i.i
  call void @_ZdlPv(ptr noundef nonnull %52) #32
  br label %_ZNSt6vectorIN5Yosys5RTLIL6SigBitESaIS2_EED2Ev.exit.i.i.i.i.i.i.i.i

_ZNSt6vectorIN5Yosys5RTLIL6SigBitESaIS2_EED2Ev.exit.i.i.i.i.i.i.i.i: ; preds = %53, %.lr.ph.i.i.i.i.i
  %54 = getelementptr inbounds i8, ptr %.05.i.i.i.i.i, i64 56
  %55 = load ptr, ptr %54, align 8
  %56 = getelementptr inbounds i8, ptr %.05.i.i.i.i.i, i64 64
  %57 = load ptr, ptr %56, align 8
  %.not4.i.i.i.i.i.i.i.i.i.i.i.i = icmp eq ptr %55, %57
  br i1 %.not4.i.i.i.i.i.i.i.i.i.i.i.i, label %_ZSt8_DestroyIPN5Yosys5RTLIL8SigChunkES2_EvT_S4_RSaIT0_E.exit.i.i.i.i.i.i.i.i.i, label %.lr.ph.i.i.i.i.i.i.i.i.i.i.i.i

.lr.ph.i.i.i.i.i.i.i.i.i.i.i.i:                   ; preds = %_ZNSt6vectorIN5Yosys5RTLIL6SigBitESaIS2_EED2Ev.exit.i.i.i.i.i.i.i.i, %_ZSt8_DestroyIN5Yosys5RTLIL8SigChunkEEvPT_.exit.i.i.i.i.i.i.i.i.i.i.i.i
  %.05.i.i.i.i.i.i.i.i.i.i.i.i = phi ptr [ %61, %_ZSt8_DestroyIN5Yosys5RTLIL8SigChunkEEvPT_.exit.i.i.i.i.i.i.i.i.i.i.i.i ], [ %55, %_ZNSt6vectorIN5Yosys5RTLIL6SigBitESaIS2_EED2Ev.exit.i.i.i.i.i.i.i.i ]
  %58 = getelementptr inbounds i8, ptr %.05.i.i.i.i.i.i.i.i.i.i.i.i, i64 8
  %59 = load ptr, ptr %58, align 8
  %.not.i.i.i.i.i.i.i.i.i.i.i.i.i.i.i.i.i = icmp eq ptr %59, null
  br i1 %.not.i.i.i.i.i.i.i.i.i.i.i.i.i.i.i.i.i, label %_ZSt8_DestroyIN5Yosys5RTLIL8SigChunkEEvPT_.exit.i.i.i.i.i.i.i.i.i.i.i.i, label %60

60:                                               ; preds = %.lr.ph.i.i.i.i.i.i.i.i.i.i.i.i
  call void @_ZdlPv(ptr noundef nonnull %59) #32
  br label %_ZSt8_DestroyIN5Yosys5RTLIL8SigChunkEEvPT_.exit.i.i.i.i.i.i.i.i.i.i.i.i

_ZSt8_DestroyIN5Yosys5RTLIL8SigChunkEEvPT_.exit.i.i.i.i.i.i.i.i.i.i.i.i: ; preds = %60, %.lr.ph.i.i.i.i.i.i.i.i.i.i.i.i
  %61 = getelementptr inbounds i8, ptr %.05.i.i.i.i.i.i.i.i.i.i.i.i, i64 40
  %.not.i.i.i.i.i.i.i.i.i.i.i.i = icmp eq ptr %61, %57
  br i1 %.not.i.i.i.i.i.i.i.i.i.i.i.i, label %_ZSt8_DestroyIPN5Yosys5RTLIL8SigChunkES2_EvT_S4_RSaIT0_E.exitthread-pre-split.i.i.i.i.i.i.i.i.i, label %.lr.ph.i.i.i.i.i.i.i.i.i.i.i.i, !llvm.loop !104

_ZSt8_DestroyIPN5Yosys5RTLIL8SigChunkES2_EvT_S4_RSaIT0_E.exitthread-pre-split.i.i.i.i.i.i.i.i.i: ; preds = %_ZSt8_DestroyIN5Yosys5RTLIL8SigChunkEEvPT_.exit.i.i.i.i.i.i.i.i.i.i.i.i
  %.pr.i.i.i.i.i.i.i.i.i = load ptr, ptr %54, align 8
  br label %_ZSt8_DestroyIPN5Yosys5RTLIL8SigChunkES2_EvT_S4_RSaIT0_E.exit.i.i.i.i.i.i.i.i.i

_ZSt8_DestroyIPN5Yosys5RTLIL8SigChunkES2_EvT_S4_RSaIT0_E.exit.i.i.i.i.i.i.i.i.i: ; preds = %_ZSt8_DestroyIPN5Yosys5RTLIL8SigChunkES2_EvT_S4_RSaIT0_E.exitthread-pre-split.i.i.i.i.i.i.i.i.i, %_ZNSt6vectorIN5Yosys5RTLIL6SigBitESaIS2_EED2Ev.exit.i.i.i.i.i.i.i.i
  %62 = phi ptr [ %.pr.i.i.i.i.i.i.i.i.i, %_ZSt8_DestroyIPN5Yosys5RTLIL8SigChunkES2_EvT_S4_RSaIT0_E.exitthread-pre-split.i.i.i.i.i.i.i.i.i ], [ %55, %_ZNSt6vectorIN5Yosys5RTLIL6SigBitESaIS2_EED2Ev.exit.i.i.i.i.i.i.i.i ]
  %.not.i.i.i1.i.i.i.i.i.i.i.i = icmp eq ptr %62, null
  br i1 %.not.i.i.i1.i.i.i.i.i.i.i.i, label %_ZSt8_DestroyIN5Yosys7FmtPartEEvPT_.exit.i.i.i.i.i, label %63

63:                                               ; preds = %_ZSt8_DestroyIPN5Yosys5RTLIL8SigChunkES2_EvT_S4_RSaIT0_E.exit.i.i.i.i.i.i.i.i.i
  call void @_ZdlPv(ptr noundef nonnull %62) #32
  br label %_ZSt8_DestroyIN5Yosys7FmtPartEEvPT_.exit.i.i.i.i.i

_ZSt8_DestroyIN5Yosys7FmtPartEEvPT_.exit.i.i.i.i.i: ; preds = %63, %_ZSt8_DestroyIPN5Yosys5RTLIL8SigChunkES2_EvT_S4_RSaIT0_E.exit.i.i.i.i.i.i.i.i.i
  %64 = getelementptr inbounds i8, ptr %.05.i.i.i.i.i, i64 8
  call void @_ZNSt7__cxx1112basic_stringIcSt11char_traitsIcESaIcEED1Ev(ptr noundef nonnull align 8 dereferenceable(32) %64) #31
  %65 = getelementptr inbounds i8, ptr %.05.i.i.i.i.i, i64 128
  %.not.i.i.i.i.i = icmp eq ptr %65, %50
  br i1 %.not.i.i.i.i.i, label %_ZSt8_DestroyIPN5Yosys7FmtPartES1_EvT_S3_RSaIT0_E.exitthread-pre-split.i.i, label %.lr.ph.i.i.i.i.i, !llvm.loop !375

_ZSt8_DestroyIPN5Yosys7FmtPartES1_EvT_S3_RSaIT0_E.exitthread-pre-split.i.i: ; preds = %_ZSt8_DestroyIN5Yosys7FmtPartEEvPT_.exit.i.i.i.i.i
  %.pr.i.i = load ptr, ptr %47, align 8
  br label %_ZSt8_DestroyIPN5Yosys7FmtPartES1_EvT_S3_RSaIT0_E.exit.i.i

_ZSt8_DestroyIPN5Yosys7FmtPartES1_EvT_S3_RSaIT0_E.exit.i.i: ; preds = %_ZSt8_DestroyIPN5Yosys7FmtPartES1_EvT_S3_RSaIT0_E.exitthread-pre-split.i.i, %44
  %66 = phi ptr [ %.pr.i.i, %_ZSt8_DestroyIPN5Yosys7FmtPartES1_EvT_S3_RSaIT0_E.exitthread-pre-split.i.i ], [ %48, %44 ]
  %.not.i.i.i.i = icmp eq ptr %66, null
  br i1 %.not.i.i.i.i, label %_ZNSt6vectorIN5Yosys7FmtPartESaIS1_EED2Ev.exit.i, label %67

67:                                               ; preds = %_ZSt8_DestroyIPN5Yosys7FmtPartES1_EvT_S3_RSaIT0_E.exit.i.i
  call void @_ZdlPv(ptr noundef nonnull %66) #32
  br label %_ZNSt6vectorIN5Yosys7FmtPartESaIS1_EED2Ev.exit.i

_ZNSt6vectorIN5Yosys7FmtPartESaIS1_EED2Ev.exit.i: ; preds = %67, %_ZSt8_DestroyIPN5Yosys7FmtPartES1_EvT_S3_RSaIT0_E.exit.i.i
  %68 = load ptr, ptr %42, align 8
  %.not.i.i.i.i.i.i = icmp eq ptr %68, null
  br i1 %.not.i.i.i.i.i.i, label %_ZN5Yosys5RTLIL5ConstD2Ev.exit.i.i, label %69

69:                                               ; preds = %_ZNSt6vectorIN5Yosys7FmtPartESaIS1_EED2Ev.exit.i
  call void @_ZdlPv(ptr noundef nonnull %68) #32
  br label %_ZN5Yosys5RTLIL5ConstD2Ev.exit.i.i

_ZN5Yosys5RTLIL5ConstD2Ev.exit.i.i:               ; preds = %69, %_ZNSt6vectorIN5Yosys7FmtPartESaIS1_EED2Ev.exit.i
  %70 = load ptr, ptr %38, align 8
  %.not.i.i.i.i1.i.i = icmp eq ptr %70, null
  br i1 %.not.i.i.i.i1.i.i, label %_ZN5Yosys5RTLIL5ConstD2Ev.exit2.i.i, label %71

71:                                               ; preds = %_ZN5Yosys5RTLIL5ConstD2Ev.exit.i.i
  call void @_ZdlPv(ptr noundef nonnull %70) #32
  br label %_ZN5Yosys5RTLIL5ConstD2Ev.exit2.i.i

_ZN5Yosys5RTLIL5ConstD2Ev.exit2.i.i:              ; preds = %71, %_ZN5Yosys5RTLIL5ConstD2Ev.exit.i.i
  %72 = load ptr, ptr %34, align 8
  %.not.i.i.i.i3.i.i = icmp eq ptr %72, null
  br i1 %.not.i.i.i.i3.i.i, label %_ZSt4swapIN12_GLOBAL__N_111SimInstance13print_state_tEENSt9enable_ifIXsr6__and_ISt6__not_ISt15__is_tuple_likeIT_EESt21is_move_constructibleIS6_ESt18is_move_assignableIS6_EEE5valueEvE4typeERS6_SF_.exit, label %73

73:                                               ; preds = %_ZN5Yosys5RTLIL5ConstD2Ev.exit2.i.i
  call void @_ZdlPv(ptr noundef nonnull %72) #32
  br label %_ZSt4swapIN12_GLOBAL__N_111SimInstance13print_state_tEENSt9enable_ifIXsr6__and_ISt6__not_ISt15__is_tuple_likeIT_EESt21is_move_constructibleIS6_ESt18is_move_assignableIS6_EEE5valueEvE4typeERS6_SF_.exit

74:                                               ; preds = %.noexc8.i, %.noexc7.i, %24, %.noexc5.i, %.noexc.i, %2
  %75 = landingpad { ptr, i32 }
          cleanup
  call fastcc void @_ZN12_GLOBAL__N_111SimInstance13print_state_tD2Ev(ptr noundef nonnull align 8 dereferenceable(136) %3) #31
  resume { ptr, i32 } %75

_ZSt4swapIN12_GLOBAL__N_111SimInstance13print_state_tEENSt9enable_ifIXsr6__and_ISt6__not_ISt15__is_tuple_likeIT_EESt21is_move_constructibleIS6_ESt18is_move_assignableIS6_EEE5valueEvE4typeERS6_SF_.exit: ; preds = %_ZN5Yosys5RTLIL5ConstD2Ev.exit2.i.i, %73
  call void @llvm.lifetime.end.p0(i64 136, ptr nonnull %3)
  ret void
}